target datalayout = "e-m:e-p270:32:32-p271:32:32-p272:64:64-i64:64-i128:128-f80:128-n8:16:32:64-S128"
target triple = "x86_64-pc-linux-gnu"

%struct.enc_struct = type { i32, i32, i32, i32, i32, ptr, ptr, ptr, [4384 x i8] }

; Function Attrs: nounwind uwtable
define internal i32 @enc_write(ptr noundef %0, ptr noundef %1, i32 noundef %2) #0 {
  %4 = alloca i32, align 4
  %5 = alloca ptr, align 8
  %6 = alloca ptr, align 8
  %7 = alloca i32, align 4
  %8 = alloca i32, align 4
  %9 = alloca i32, align 4
  %10 = alloca i32, align 4
  %11 = alloca ptr, align 8
  %12 = alloca ptr, align 8
  %13 = alloca i32, align 4
  store ptr %0, ptr %5, align 8, !tbaa !3
  store ptr %1, ptr %6, align 8, !tbaa !10
  store i32 %2, ptr %7, align 4, !tbaa !12
  call void @llvm.lifetime.start.p0(i64 4, ptr %8) #4
  store i32 0, ptr %8, align 4, !tbaa !12
  call void @llvm.lifetime.start.p0(i64 4, ptr %9) #4
  call void @llvm.lifetime.start.p0(i64 4, ptr %10) #4
  call void @llvm.lifetime.start.p0(i64 8, ptr %11) #4
  call void @llvm.lifetime.start.p0(i64 8, ptr %12) #4
  %14 = load ptr, ptr %5, align 8, !tbaa !3
  %15 = call ptr @BIO_get_data(ptr noundef %14)
  store ptr %15, ptr %11, align 8, !tbaa !15
  %16 = load ptr, ptr %5, align 8, !tbaa !3
  %17 = call ptr @BIO_next(ptr noundef %16)
  store ptr %17, ptr %12, align 8, !tbaa !3
  %18 = load ptr, ptr %11, align 8, !tbaa !15
  %19 = icmp eq ptr %18, null
  br i1 %19, label %23, label %20

20:                                               ; preds = %3
  %21 = load ptr, ptr %12, align 8, !tbaa !3
  %22 = icmp eq ptr %21, null
  br i1 %22, label %23, label %24

23:                                               ; preds = %20, %3
  store i32 0, ptr %4, align 4
  store i32 1, ptr %13, align 4
  br label %158

24:                                               ; preds = %20
  %25 = load i32, ptr %7, align 4, !tbaa !12
  store i32 %25, ptr %8, align 4, !tbaa !12
  %26 = load ptr, ptr %5, align 8, !tbaa !3
  call void @BIO_clear_flags(ptr noundef %26, i32 noundef 15)
  %27 = load ptr, ptr %11, align 8, !tbaa !15
  %28 = getelementptr inbounds nuw %struct.enc_struct, ptr %27, i32 0, i32 0
  %29 = load i32, ptr %28, align 8, !tbaa !20
  %30 = load ptr, ptr %11, align 8, !tbaa !15
  %31 = getelementptr inbounds nuw %struct.enc_struct, ptr %30, i32 0, i32 1
  %32 = load i32, ptr %31, align 4, !tbaa !21
  %33 = sub nsw i32 %29, %32
  store i32 %33, ptr %9, align 4, !tbaa !12
  br label %34

34:                                               ; preds = %53, %24
  %35 = load i32, ptr %9, align 4, !tbaa !12
  %36 = icmp sgt i32 %35, 0
  br i1 %36, label %37, label %62

37:                                               ; preds = %34
  %38 = load ptr, ptr %12, align 8, !tbaa !3
  %39 = load ptr, ptr %11, align 8, !tbaa !15
  %40 = getelementptr inbounds nuw %struct.enc_struct, ptr %39, i32 0, i32 8
  %41 = load ptr, ptr %11, align 8, !tbaa !15
  %42 = getelementptr inbounds nuw %struct.enc_struct, ptr %41, i32 0, i32 1
  %43 = load i32, ptr %42, align 4, !tbaa !21
  %44 = sext i32 %43 to i64
  %45 = getelementptr inbounds [4384 x i8], ptr %40, i64 0, i64 %44
  %46 = load i32, ptr %9, align 4, !tbaa !12
  %47 = call i32 @BIO_write(ptr noundef %38, ptr noundef %45, i32 noundef %46)
  store i32 %47, ptr %10, align 4, !tbaa !12
  %48 = load i32, ptr %10, align 4, !tbaa !12
  %49 = icmp sle i32 %48, 0
  br i1 %49, label %50, label %53

50:                                               ; preds = %37
  %51 = load ptr, ptr %5, align 8, !tbaa !3
  call void @BIO_copy_next_retry(ptr noundef %51)
  %52 = load i32, ptr %10, align 4, !tbaa !12
  store i32 %52, ptr %4, align 4
  store i32 1, ptr %13, align 4
  br label %158

53:                                               ; preds = %37
  %54 = load i32, ptr %10, align 4, !tbaa !12
  %55 = load ptr, ptr %11, align 8, !tbaa !15
  %56 = getelementptr inbounds nuw %struct.enc_struct, ptr %55, i32 0, i32 1
  %57 = load i32, ptr %56, align 4, !tbaa !21
  %58 = add nsw i32 %57, %54
  store i32 %58, ptr %56, align 4, !tbaa !21
  %59 = load i32, ptr %10, align 4, !tbaa !12
  %60 = load i32, ptr %9, align 4, !tbaa !12
  %61 = sub nsw i32 %60, %59
  store i32 %61, ptr %9, align 4, !tbaa !12
  br label %34, !llvm.loop !22

62:                                               ; preds = %34
  %63 = load ptr, ptr %6, align 8, !tbaa !10
  %64 = icmp eq ptr %63, null
  br i1 %64, label %68, label %65

65:                                               ; preds = %62
  %66 = load i32, ptr %7, align 4, !tbaa !12
  %67 = icmp sle i32 %66, 0
  br i1 %67, label %68, label %69

68:                                               ; preds = %65, %62
  store i32 0, ptr %4, align 4
  store i32 1, ptr %13, align 4
  br label %158

69:                                               ; preds = %65
  %70 = load ptr, ptr %11, align 8, !tbaa !15
  %71 = getelementptr inbounds nuw %struct.enc_struct, ptr %70, i32 0, i32 1
  store i32 0, ptr %71, align 4, !tbaa !21
  br label %72

72:                                               ; preds = %150, %69
  %73 = load i32, ptr %7, align 4, !tbaa !12
  %74 = icmp sgt i32 %73, 0
  br i1 %74, label %75, label %155

75:                                               ; preds = %72
  %76 = load i32, ptr %7, align 4, !tbaa !12
  %77 = icmp sgt i32 %76, 4096
  br i1 %77, label %78, label %79

78:                                               ; preds = %75
  br label %81

79:                                               ; preds = %75
  %80 = load i32, ptr %7, align 4, !tbaa !12
  br label %81

81:                                               ; preds = %79, %78
  %82 = phi i32 [ 4096, %78 ], [ %80, %79 ]
  store i32 %82, ptr %9, align 4, !tbaa !12
  %83 = load ptr, ptr %11, align 8, !tbaa !15
  %84 = getelementptr inbounds nuw %struct.enc_struct, ptr %83, i32 0, i32 5
  %85 = load ptr, ptr %84, align 8, !tbaa !17
  %86 = load ptr, ptr %11, align 8, !tbaa !15
  %87 = getelementptr inbounds nuw %struct.enc_struct, ptr %86, i32 0, i32 8
  %88 = getelementptr inbounds [4384 x i8], ptr %87, i64 0, i64 0
  %89 = load ptr, ptr %11, align 8, !tbaa !15
  %90 = getelementptr inbounds nuw %struct.enc_struct, ptr %89, i32 0, i32 0
  %91 = load ptr, ptr %6, align 8, !tbaa !10
  %92 = load i32, ptr %9, align 4, !tbaa !12
  %93 = call i32 @EVP_CipherUpdate(ptr noundef %85, ptr noundef %88, ptr noundef %90, ptr noundef %91, i32 noundef %92)
  %94 = icmp ne i32 %93, 0
  br i1 %94, label %99, label %95

95:                                               ; preds = %81
  %96 = load ptr, ptr %5, align 8, !tbaa !3
  call void @BIO_clear_flags(ptr noundef %96, i32 noundef 15)
  %97 = load ptr, ptr %11, align 8, !tbaa !15
  %98 = getelementptr inbounds nuw %struct.enc_struct, ptr %97, i32 0, i32 4
  store i32 0, ptr %98, align 8, !tbaa !24
  store i32 0, ptr %4, align 4
  store i32 1, ptr %13, align 4
  br label %158

99:                                               ; preds = %81
  %100 = load i32, ptr %9, align 4, !tbaa !12
  %101 = load i32, ptr %7, align 4, !tbaa !12
  %102 = sub nsw i32 %101, %100
  store i32 %102, ptr %7, align 4, !tbaa !12
  %103 = load i32, ptr %9, align 4, !tbaa !12
  %104 = load ptr, ptr %6, align 8, !tbaa !10
  %105 = sext i32 %103 to i64
  %106 = getelementptr inbounds i8, ptr %104, i64 %105
  store ptr %106, ptr %6, align 8, !tbaa !10
  %107 = load ptr, ptr %11, align 8, !tbaa !15
  %108 = getelementptr inbounds nuw %struct.enc_struct, ptr %107, i32 0, i32 1
  store i32 0, ptr %108, align 4, !tbaa !21
  %109 = load ptr, ptr %11, align 8, !tbaa !15
  %110 = getelementptr inbounds nuw %struct.enc_struct, ptr %109, i32 0, i32 0
  %111 = load i32, ptr %110, align 8, !tbaa !20
  store i32 %111, ptr %9, align 4, !tbaa !12
  br label %112

112:                                              ; preds = %141, %99
  %113 = load i32, ptr %9, align 4, !tbaa !12
  %114 = icmp sgt i32 %113, 0
  br i1 %114, label %115, label %150

115:                                              ; preds = %112
  %116 = load ptr, ptr %12, align 8, !tbaa !3
  %117 = load ptr, ptr %11, align 8, !tbaa !15
  %118 = getelementptr inbounds nuw %struct.enc_struct, ptr %117, i32 0, i32 8
  %119 = load ptr, ptr %11, align 8, !tbaa !15
  %120 = getelementptr inbounds nuw %struct.enc_struct, ptr %119, i32 0, i32 1
  %121 = load i32, ptr %120, align 4, !tbaa !21
  %122 = sext i32 %121 to i64
  %123 = getelementptr inbounds [4384 x i8], ptr %118, i64 0, i64 %122
  %124 = load i32, ptr %9, align 4, !tbaa !12
  %125 = call i32 @BIO_write(ptr noundef %116, ptr noundef %123, i32 noundef %124)
  store i32 %125, ptr %10, align 4, !tbaa !12
  %126 = load i32, ptr %10, align 4, !tbaa !12
  %127 = icmp sle i32 %126, 0
  br i1 %127, label %128, label %141

128:                                              ; preds = %115
  %129 = load ptr, ptr %5, align 8, !tbaa !3
  call void @BIO_copy_next_retry(ptr noundef %129)
  %130 = load i32, ptr %8, align 4, !tbaa !12
  %131 = load i32, ptr %7, align 4, !tbaa !12
  %132 = icmp eq i32 %130, %131
  br i1 %132, label %133, label %135

133:                                              ; preds = %128
  %134 = load i32, ptr %10, align 4, !tbaa !12
  br label %139

135:                                              ; preds = %128
  %136 = load i32, ptr %8, align 4, !tbaa !12
  %137 = load i32, ptr %7, align 4, !tbaa !12
  %138 = sub nsw i32 %136, %137
  br label %139

139:                                              ; preds = %135, %133
  %140 = phi i32 [ %134, %133 ], [ %138, %135 ]
  store i32 %140, ptr %4, align 4
  store i32 1, ptr %13, align 4
  br label %158

141:                                              ; preds = %115
  %142 = load i32, ptr %10, align 4, !tbaa !12
  %143 = load i32, ptr %9, align 4, !tbaa !12
  %144 = sub nsw i32 %143, %142
  store i32 %144, ptr %9, align 4, !tbaa !12
  %145 = load i32, ptr %10, align 4, !tbaa !12
  %146 = load ptr, ptr %11, align 8, !tbaa !15
  %147 = getelementptr inbounds nuw %struct.enc_struct, ptr %146, i32 0, i32 1
  %148 = load i32, ptr %147, align 4, !tbaa !21
  %149 = add nsw i32 %148, %145
  store i32 %149, ptr %147, align 4, !tbaa !21
  br label %112, !llvm.loop !25

150:                                              ; preds = %112
  %151 = load ptr, ptr %11, align 8, !tbaa !15
  %152 = getelementptr inbounds nuw %struct.enc_struct, ptr %151, i32 0, i32 0
  store i32 0, ptr %152, align 8, !tbaa !20
  %153 = load ptr, ptr %11, align 8, !tbaa !15
  %154 = getelementptr inbounds nuw %struct.enc_struct, ptr %153, i32 0, i32 1
  store i32 0, ptr %154, align 4, !tbaa !21
  br label %72, !llvm.loop !26

155:                                              ; preds = %72
  %156 = load ptr, ptr %5, align 8, !tbaa !3
  call void @BIO_copy_next_retry(ptr noundef %156)
  %157 = load i32, ptr %8, align 4, !tbaa !12
  store i32 %157, ptr %4, align 4
  store i32 1, ptr %13, align 4
  br label %158

158:                                              ; preds = %155, %139, %95, %68, %50, %23
  call void @llvm.lifetime.end.p0(i64 8, ptr %12) #4
  call void @llvm.lifetime.end.p0(i64 8, ptr %11) #4
  call void @llvm.lifetime.end.p0(i64 4, ptr %10) #4
  call void @llvm.lifetime.end.p0(i64 4, ptr %9) #4
  call void @llvm.lifetime.end.p0(i64 4, ptr %8) #4
  %159 = load i32, ptr %4, align 4
  ret i32 %159
}