; Function Attrs: nounwind uwtable
define internal i32 @enc_write(ptr noundef %0, ptr noundef %1, i32 noundef %2) #1 {
  %4 = tail call ptr @BIO_get_data(ptr noundef %0) #6
  %5 = tail call ptr @BIO_next(ptr noundef %0) #6
  %6 = icmp eq ptr %4, null
  %7 = icmp eq ptr %5, null
  %or.cond = select i1 %6, i1 true, i1 %7
  br i1 %or.cond, label %59, label %8

8:                                                ; preds = %3
  tail call void @BIO_clear_flags(ptr noundef %0, i32 noundef 15) #6
  %9 = load i32, ptr %4, align 8, !tbaa !11
  %10 = getelementptr inbounds nuw i8, ptr %4, i64 4
  %11 = load i32, ptr %10, align 4, !tbaa !12
  %12 = sub nsw i32 %9, %11
  %13 = icmp sgt i32 %12, 0
  br i1 %13, label %.lr.ph, label %._crit_edge

.lr.ph:                                           ; preds = %8
  %14 = getelementptr inbounds nuw i8, ptr %4, i64 48
  br label %15

15:                                               ; preds = %.lr.ph, %22
  %16 = phi i32 [ %11, %.lr.ph ], [ %24, %22 ]
  %.06375 = phi i32 [ %12, %.lr.ph ], [ %25, %22 ]
  %17 = sext i32 %16 to i64
  %18 = getelementptr inbounds [4384 x i8], ptr %14, i64 0, i64 %17
  %19 = tail call i32 @BIO_write(ptr noundef %5, ptr noundef nonnull %18, i32 noundef %.06375) #6
  %20 = icmp slt i32 %19, 1
  br i1 %20, label %21, label %22

21:                                               ; preds = %15
  tail call void @BIO_copy_next_retry(ptr noundef %0) #6
  br label %59

22:                                               ; preds = %15
  %23 = load i32, ptr %10, align 4, !tbaa !12
  %24 = add nsw i32 %23, %19
  store i32 %24, ptr %10, align 4, !tbaa !12
  %25 = sub nsw i32 %.06375, %19
  %26 = icmp sgt i32 %25, 0
  br i1 %26, label %15, label %._crit_edge, !llvm.loop !13

._crit_edge:                                      ; preds = %22, %8
  %27 = icmp eq ptr %1, null
  %28 = icmp slt i32 %2, 1
  %or.cond3 = or i1 %27, %28
  br i1 %or.cond3, label %59, label %.preheader

.preheader:                                       ; preds = %._crit_edge
  store i32 0, ptr %10, align 4, !tbaa !12
  %29 = getelementptr inbounds nuw i8, ptr %4, i64 24
  %30 = getelementptr inbounds nuw i8, ptr %4, i64 48
  br label %31

31:                                               ; preds = %.preheader, %._crit_edge79
  %.06281 = phi ptr [ %1, %.preheader ], [ %40, %._crit_edge79 ]
  %.06480 = phi i32 [ %2, %.preheader ], [ %38, %._crit_edge79 ]
  %32 = tail call i32 @llvm.umin.i32(i32 %.06480, i32 4096)
  %33 = load ptr, ptr %29, align 8, !tbaa !3
  %34 = tail call i32 @EVP_CipherUpdate(ptr noundef %33, ptr noundef nonnull %30, ptr noundef nonnull %4, ptr noundef %.06281, i32 noundef %32) #6
  %.not = icmp eq i32 %34, 0
  br i1 %.not, label %35, label %37

35:                                               ; preds = %31
  tail call void @BIO_clear_flags(ptr noundef %0, i32 noundef 15) #6
  %36 = getelementptr inbounds nuw i8, ptr %4, i64 16
  store i32 0, ptr %36, align 8, !tbaa !15
  br label %59

37:                                               ; preds = %31
  %38 = sub nsw i32 %.06480, %32
  %39 = zext nneg i32 %32 to i64
  %40 = getelementptr inbounds nuw i8, ptr %.06281, i64 %39
  store i32 0, ptr %10, align 4, !tbaa !12
  %41 = load i32, ptr %4, align 8, !tbaa !11
  %42 = icmp sgt i32 %41, 0
  br i1 %42, label %.lr.ph78, label %._crit_edge79

.lr.ph78:                                         ; preds = %37, %52
  %43 = phi i32 [ %55, %52 ], [ 0, %37 ]
  %.176 = phi i32 [ %53, %52 ], [ %41, %37 ]
  %44 = sext i32 %43 to i64
  %45 = getelementptr inbounds [4384 x i8], ptr %30, i64 0, i64 %44
  %46 = tail call i32 @BIO_write(ptr noundef %5, ptr noundef nonnull %45, i32 noundef %.176) #6
  %47 = icmp slt i32 %46, 1
  br i1 %47, label %48, label %52

48:                                               ; preds = %.lr.ph78
  tail call void @BIO_copy_next_retry(ptr noundef %0) #6
  %49 = icmp eq i32 %2, %38
  %50 = sub nsw i32 %2, %38
  %51 = select i1 %49, i32 %46, i32 %50
  br label %59

52:                                               ; preds = %.lr.ph78
  %53 = sub nsw i32 %.176, %46
  %54 = load i32, ptr %10, align 4, !tbaa !12
  %55 = add nsw i32 %54, %46
  store i32 %55, ptr %10, align 4, !tbaa !12
  %56 = icmp sgt i32 %53, 0
  br i1 %56, label %.lr.ph78, label %._crit_edge79, !llvm.loop !16

._crit_edge79:                                    ; preds = %52, %37
  store i32 0, ptr %4, align 8, !tbaa !11
  store i32 0, ptr %10, align 4, !tbaa !12
  %57 = icmp sgt i32 %38, 0
  br i1 %57, label %31, label %58, !llvm.loop !17

58:                                               ; preds = %._crit_edge79
  tail call void @BIO_copy_next_retry(ptr noundef %0) #6
  br label %59

59:                                               ; preds = %._crit_edge, %3, %58, %48, %35, %21
  %.0 = phi i32 [ %19, %21 ], [ %51, %48 ], [ 0, %35 ], [ %2, %58 ], [ 0, %3 ], [ 0, %._crit_edge ]
  ret i32 %.0
}